target datalayout = "e-m:e-p270:32:32-p271:32:32-p272:64:64-i64:64-i128:128-f80:128-n8:16:32:64-S128"
target triple = "x86_64-pc-linux-gnu"

%struct.SN_env = type { ptr, i32, i32, i32, i32, i32, ptr, ptr }

; Function Attrs: nounwind uwtable
define internal i32 @r_step7(ptr noundef %0) #0 {
  %2 = alloca i32, align 4
  %3 = alloca ptr, align 8
  %4 = alloca i32, align 4
  %5 = alloca i32, align 4
  store ptr %0, ptr %3, align 8
  %6 = load ptr, ptr %3, align 8
  %7 = getelementptr inbounds nuw %struct.SN_env, ptr %6, i32 0, i32 1
  %8 = load i32, ptr %7, align 8
  %9 = load ptr, ptr %3, align 8
  %10 = getelementptr inbounds nuw %struct.SN_env, ptr %9, i32 0, i32 5
  store i32 %8, ptr %10, align 8
  %11 = load ptr, ptr %3, align 8
  %12 = getelementptr inbounds nuw %struct.SN_env, ptr %11, i32 0, i32 1
  %13 = load i32, ptr %12, align 8
  %14 = sub i32 %13, 7
  %15 = load ptr, ptr %3, align 8
  %16 = getelementptr inbounds nuw %struct.SN_env, ptr %15, i32 0, i32 3
  %17 = load i32, ptr %16, align 8
  %18 = icmp sle i32 %14, %17
  br i1 %18, label %45, label %19

19:                                               ; preds = %1
  %20 = load ptr, ptr %3, align 8
  %21 = getelementptr inbounds nuw %struct.SN_env, ptr %20, i32 0, i32 0
  %22 = load ptr, ptr %21, align 8
  %23 = load ptr, ptr %3, align 8
  %24 = getelementptr inbounds nuw %struct.SN_env, ptr %23, i32 0, i32 1
  %25 = load i32, ptr %24, align 8
  %26 = sub i32 %25, 1
  %27 = sext i32 %26 to i64
  %28 = getelementptr inbounds i8, ptr %22, i64 %27
  %29 = load i8, ptr %28, align 1
  %30 = zext i8 %29 to i32
  %31 = icmp ne i32 %30, 129
  br i1 %31, label %32, label %46

32:                                               ; preds = %19
  %33 = load ptr, ptr %3, align 8
  %34 = getelementptr inbounds nuw %struct.SN_env, ptr %33, i32 0, i32 0
  %35 = load ptr, ptr %34, align 8
  %36 = load ptr, ptr %3, align 8
  %37 = getelementptr inbounds nuw %struct.SN_env, ptr %36, i32 0, i32 1
  %38 = load i32, ptr %37, align 8
  %39 = sub i32 %38, 1
  %40 = sext i32 %39 to i64
  %41 = getelementptr inbounds i8, ptr %35, i64 %40
  %42 = load i8, ptr %41, align 1
  %43 = zext i8 %42 to i32
  %44 = icmp ne i32 %43, 132
  br i1 %44, label %45, label %46

45:                                               ; preds = %32, %1
  store i32 0, ptr %2, align 4
  br label %67

46:                                               ; preds = %32, %19
  %47 = load ptr, ptr %3, align 8
  %48 = call i32 @find_among_b(ptr noundef %47, ptr noundef @a_67, i32 noundef 8)
  %49 = icmp ne i32 %48, 0
  br i1 %49, label %51, label %50

50:                                               ; preds = %46
  store i32 0, ptr %2, align 4
  br label %67

51:                                               ; preds = %46
  %52 = load ptr, ptr %3, align 8
  %53 = getelementptr inbounds nuw %struct.SN_env, ptr %52, i32 0, i32 1
  %54 = load i32, ptr %53, align 8
  %55 = load ptr, ptr %3, align 8
  %56 = getelementptr inbounds nuw %struct.SN_env, ptr %55, i32 0, i32 4
  store i32 %54, ptr %56, align 4
  call void @llvm.lifetime.start.p0(i64 4, ptr %4) #3
  %57 = load ptr, ptr %3, align 8
  %58 = call i32 @slice_del(ptr noundef %57)
  store i32 %58, ptr %4, align 4
  %59 = load i32, ptr %4, align 4
  %60 = icmp slt i32 %59, 0
  br i1 %60, label %61, label %63

61:                                               ; preds = %51
  %62 = load i32, ptr %4, align 4
  store i32 %62, ptr %2, align 4
  store i32 1, ptr %5, align 4
  br label %64

63:                                               ; preds = %51
  store i32 0, ptr %5, align 4
  br label %64

64:                                               ; preds = %63, %61
  call void @llvm.lifetime.end.p0(i64 4, ptr %4) #3
  %65 = load i32, ptr %5, align 4
  switch i32 %65, label %69 [
    i32 0, label %66
    i32 1, label %67
  ]

66:                                               ; preds = %64
  store i32 1, ptr %2, align 4
  br label %67

67:                                               ; preds = %66, %64, %50, %45
  %68 = load i32, ptr %2, align 4
  ret i32 %68

69:                                               ; preds = %64
  unreachable
}